target datalayout = "e-m:e-p270:32:32-p271:32:32-p272:64:64-i64:64-i128:128-f80:128-n8:16:32:64-S128"
target triple = "x86_64-pc-linux-gnu"

; Function Attrs: mustprogress nounwind uwtable
define signext i8 @uprv_mul32_overflow_77(i32 noundef %0, i32 noundef %1, ptr noundef %2) #0 {
  %4 = alloca i32, align 4
  %5 = alloca i32, align 4
  %6 = alloca ptr, align 8
  %7 = alloca i64, align 8
  %8 = alloca i64, align 8
  %9 = alloca i64, align 8
  store i32 %0, ptr %4, align 4, !tbaa !14
  store i32 %1, ptr %5, align 4, !tbaa !14
  store ptr %2, ptr %6, align 8, !tbaa !20
  call void @llvm.lifetime.start.p0(i64 8, ptr %7) #14
  %10 = load i32, ptr %4, align 4, !tbaa !14
  %11 = sext i32 %10 to i64
  store i64 %11, ptr %7, align 8, !tbaa !18
  call void @llvm.lifetime.start.p0(i64 8, ptr %8) #14
  %12 = load i32, ptr %5, align 4, !tbaa !14
  %13 = sext i32 %12 to i64
  store i64 %13, ptr %8, align 8, !tbaa !18
  call void @llvm.lifetime.start.p0(i64 8, ptr %9) #14
  %14 = load i64, ptr %7, align 8, !tbaa !18
  %15 = load i64, ptr %8, align 8, !tbaa !18
  %16 = mul nsw i64 %14, %15
  store i64 %16, ptr %9, align 8, !tbaa !18
  %17 = load i64, ptr %9, align 8, !tbaa !18
  %18 = trunc i64 %17 to i32
  %19 = load ptr, ptr %6, align 8, !tbaa !20
  store i32 %18, ptr %19, align 4, !tbaa !14
  %20 = load i64, ptr %9, align 8, !tbaa !18
  %21 = load ptr, ptr %6, align 8, !tbaa !20
  %22 = load i32, ptr %21, align 4, !tbaa !14
  %23 = sext i32 %22 to i64
  %24 = icmp ne i64 %20, %23
  %25 = zext i1 %24 to i8
  call void @llvm.lifetime.end.p0(i64 8, ptr %9) #14
  call void @llvm.lifetime.end.p0(i64 8, ptr %8) #14
  call void @llvm.lifetime.end.p0(i64 8, ptr %7) #14
  ret i8 %25
}