; Function Attrs: mustprogress nofree norecurse nosync nounwind willreturn memory(argmem: write) uwtable
define signext range(i8 0, 2) i8 @uprv_mul32_overflow_77(i32 noundef %0, i32 noundef %1, ptr noundef writeonly captures(none) initializes((0, 4)) %2) local_unnamed_addr #18 {
  %4 = sext i32 %0 to i64
  %5 = sext i32 %1 to i64
  %6 = mul nsw i64 %5, %4
  %7 = trunc i64 %6 to i32
  store i32 %7, ptr %2, align 4, !tbaa !12
  %8 = add nsw i64 %6, -2147483648
  %9 = icmp ult i64 %8, -4294967296
  %10 = zext i1 %9 to i8
  ret i8 %10
}